target datalayout = "e-m:e-p270:32:32-p271:32:32-p272:64:64-i64:64-i128:128-f80:128-n8:16:32:64-S128"
target triple = "x86_64-unknown-linux-gnu"

@zmalloc_oom_handler = internal global ptr @zmalloc_default_oom, align 8
@used_memory = internal global i64 0, align 8

; Function Attrs: nounwind uwtable
define internal ptr @ztrycalloc_usable_internal(i64 noundef %size, ptr noundef %usable) #0 {
entry:
  %retval = alloca ptr, align 8
  %size.addr = alloca i64, align 8
  %usable.addr = alloca ptr, align 8
  %ptr = alloca ptr, align 8
  %.atomictmp = alloca i64, align 8
  %atomic-temp = alloca i64, align 8
  store i64 %size, ptr %size.addr, align 8
  store ptr %usable, ptr %usable.addr, align 8
  %0 = load i64, ptr %size.addr, align 8
  %cmp = icmp uge i64 %0, 9223372036854775807
  br i1 %cmp, label %if.then, label %if.end

if.then:                                          ; preds = %entry
  store ptr null, ptr %retval, align 8
  br label %return

if.end:                                           ; preds = %entry
  %1 = load i64, ptr %size.addr, align 8
  %cmp1 = icmp ugt i64 %1, 0
  br i1 %cmp1, label %cond.true, label %cond.false

cond.true:                                        ; preds = %if.end
  %2 = load i64, ptr %size.addr, align 8
  br label %cond.end

cond.false:                                       ; preds = %if.end
  br label %cond.end

cond.end:                                         ; preds = %cond.false, %cond.true
  %cond = phi i64 [ %2, %cond.true ], [ 8, %cond.false ]
  %add = add i64 %cond, 0
  %call = call noalias ptr @je_calloc(i64 noundef 1, i64 noundef %add) #15
  store ptr %call, ptr %ptr, align 8
  %3 = load ptr, ptr %ptr, align 8
  %cmp2 = icmp eq ptr %3, null
  br i1 %cmp2, label %if.then3, label %if.end4

if.then3:                                         ; preds = %cond.end
  store ptr null, ptr %retval, align 8
  br label %return

if.end4:                                          ; preds = %cond.end
  %4 = load ptr, ptr %ptr, align 8
  %call5 = call i64 @je_malloc_usable_size(ptr noundef %4) #12
  store i64 %call5, ptr %size.addr, align 8
  %5 = load i64, ptr %size.addr, align 8
  store i64 %5, ptr %.atomictmp, align 8
  %6 = load i64, ptr %.atomictmp, align 8
  %7 = atomicrmw add ptr @used_memory, i64 %6 monotonic, align 8
  store i64 %7, ptr %atomic-temp, align 8
  %8 = load ptr, ptr %usable.addr, align 8
  %tobool = icmp ne ptr %8, null
  br i1 %tobool, label %if.then6, label %if.end7

if.then6:                                         ; preds = %if.end4
  %9 = load i64, ptr %size.addr, align 8
  %10 = load ptr, ptr %usable.addr, align 8
  store i64 %9, ptr %10, align 8
  br label %if.end7

if.end7:                                          ; preds = %if.then6, %if.end4
  %11 = load ptr, ptr %ptr, align 8
  store ptr %11, ptr %retval, align 8
  br label %return

return:                                           ; preds = %if.end7, %if.then3, %if.then
  %12 = load ptr, ptr %retval, align 8
  ret ptr %12
}

; Function Attrs: nounwind allocsize(0,1) uwtable
define dso_local noalias ptr @zcalloc_num(i64 noundef %num, i64 noundef %size) #5 {
entry:
  %retval = alloca ptr, align 8
  %num.addr = alloca i64, align 8
  %size.addr = alloca i64, align 8
  %ptr = alloca ptr, align 8
  store i64 %num, ptr %num.addr, align 8
  store i64 %size, ptr %size.addr, align 8
  %0 = load i64, ptr %size.addr, align 8
  %cmp = icmp eq i64 %0, 0
  br i1 %cmp, label %if.then, label %lor.lhs.false

lor.lhs.false:                                    ; preds = %entry
  %1 = load i64, ptr %num.addr, align 8
  %2 = load i64, ptr %size.addr, align 8
  %div = udiv i64 -1, %2
  %cmp1 = icmp ugt i64 %1, %div
  br i1 %cmp1, label %if.then, label %if.end

if.then:                                          ; preds = %lor.lhs.false, %entry
  %3 = load ptr, ptr @zmalloc_oom_handler, align 8
  call void %3(i64 noundef -1)
  store ptr null, ptr %retval, align 8
  br label %return

if.end:                                           ; preds = %lor.lhs.false
  %4 = load i64, ptr %num.addr, align 8
  %5 = load i64, ptr %size.addr, align 8
  %mul = mul i64 %4, %5
  %call = call ptr @ztrycalloc_usable_internal(i64 noundef %mul, ptr noundef null)
  store ptr %call, ptr %ptr, align 8
  %6 = load ptr, ptr %ptr, align 8
  %tobool = icmp ne ptr %6, null
  br i1 %tobool, label %if.end4, label %if.then2

if.then2:                                         ; preds = %if.end
  %7 = load ptr, ptr @zmalloc_oom_handler, align 8
  %8 = load i64, ptr %num.addr, align 8
  %9 = load i64, ptr %size.addr, align 8
  %mul3 = mul i64 %8, %9
  call void %7(i64 noundef %mul3)
  br label %if.end4

if.end4:                                          ; preds = %if.then2, %if.end
  %10 = load ptr, ptr %ptr, align 8
  store ptr %10, ptr %retval, align 8
  br label %return

return:                                           ; preds = %if.end4, %if.then
  %11 = load ptr, ptr %retval, align 8
  ret ptr %11
}