; Function Attrs: nounwind allocsize(0,1) uwtable
define dso_local noalias ptr @zcalloc_num(i64 noundef %num, i64 noundef %size) local_unnamed_addr #7 {
entry:
  %cmp = icmp eq i64 %size, 0
  br i1 %cmp, label %if.then, label %lor.lhs.false

lor.lhs.false:                                    ; preds = %entry
  %mul7 = tail call { i64, i1 } @llvm.umul.with.overflow.i64(i64 %size, i64 %num)
  %mul.ov = extractvalue { i64, i1 } %mul7, 1
  br i1 %mul.ov, label %if.then, label %if.end

if.then:                                          ; preds = %lor.lhs.false, %entry
  %0 = load ptr, ptr @zmalloc_oom_handler, align 8
  tail call void %0(i64 noundef -1) #24
  br label %return

if.end:                                           ; preds = %lor.lhs.false
  %mul = mul i64 %size, %num
  %cmp.i = icmp ugt i64 %mul, 9223372036854775806
  br i1 %cmp.i, label %if.then2, label %if.end.i

if.end.i:                                         ; preds = %if.end
  %cmp1.not.i = icmp eq i64 %mul, 0
  %cond.i = select i1 %cmp1.not.i, i64 8, i64 %mul
  %call.i = tail call noalias ptr @je_calloc(i64 noundef 1, i64 noundef %cond.i) #26
  %cmp2.i = icmp eq ptr %call.i, null
  br i1 %cmp2.i, label %if.then2, label %ztrycalloc_usable_internal.exit

ztrycalloc_usable_internal.exit:                  ; preds = %if.end.i
  %call5.i = tail call i64 @je_malloc_usable_size(ptr noundef nonnull %call.i) #24
  %1 = atomicrmw add ptr @used_memory, i64 %call5.i monotonic, align 8
  br label %return

if.then2:                                         ; preds = %if.end, %if.end.i
  %2 = load ptr, ptr @zmalloc_oom_handler, align 8
  tail call void %2(i64 noundef %mul) #24
  br label %return

return:                                           ; preds = %ztrycalloc_usable_internal.exit, %if.then2, %if.then
  %retval.0 = phi ptr [ null, %if.then ], [ null, %if.then2 ], [ %call.i, %ztrycalloc_usable_internal.exit ]
  ret ptr %retval.0
}